(lp0
ccopy_reg
_reconstructor
p1
(cdeap.creator
Individual
p2
c__builtin__
list
p3
(lp4
F0.0
aF0.08
aF0.030712750991801645
aF0.030104221627535167
aF0.045779824234308736
aF0.039452589237071026
aF0.032287022638062886
aF0.044960339766824335
atp5
Rp6
(dp7
S'fitness'
p8
g1
(cdeap.creator
FitnessMin
p9
c__builtin__
object
p10
Ntp11
Rp12
(dp13
S'wvalues'
p14
(cnumpy.core.multiarray
scalar
p15
(cnumpy
dtype
p16
(S'f8'
p17
I0
I1
tp18
Rp19
(I3
S'<'
p20
NNNI-1
I-1
I0
tp21
bS'\x8e`\x9b=\xa55w\xbf'
p22
tp23
Rp24
tp25
sbsbag1
(g2
g3
(lp26
F0.06597964420974449
aF0.0
aF0.030712750991801645
aF0.030104221627535167
aF0.0
aF0.009317183639798872
aF0.05
aF0.0
atp27
Rp28
(dp29
g8
g1
(g9
g10
Ntp30
Rp31
(dp32
g14
(g15
(g19
S'9\x95\xda,WLw\xbf'
p33
tp34
Rp35
tp36
sbsbag1
(g2
g3
(lp37
F0.06597964420974449
aF0.0
aF0.030712750991801645
aF0.030104221627535167
aF0.0
aF0.039452589237071026
aF0.032287022638062886
aF0.044960339766824335
atp38
Rp39
(dp40
g8
g1
(g9
g10
Ntp41
Rp42
(dp43
g14
(g15
(g19
S')\x0f\x02\xb7\x1c&w\xbf'
p44
tp45
Rp46
tp47
sbsbag1
(g2
g3
(lp48
F0.08
aF0.07990675245747259
aF0.030712750991801645
aF0.030104221627535167
aF0.0
aF0.039452589237071026
aF0.032287022638062886
aF0.044960339766824335
atp49
Rp50
(dp51
g8
g1
(g9
g10
Ntp52
Rp53
(dp54
g14
(g15
(g19
S'\xcdzVg\x18)w\xbf'
p55
tp56
Rp57
tp58
sbsbag1
(g2
g3
(lp59
F0.08
aF0.0
aF0.030712750991801645
aF0.030104221627535167
aF0.0
aF0.0
aF0.032287022638062886
aF0.044960339766824335
atp60
Rp61
(dp62
g8
g1
(g9
g10
Ntp63
Rp64
(dp65
g14
(g15
(g19
S'p\x10\xef\x8b\xfe\x1bw\xbf'
p66
tp67
Rp68
tp69
sbsba.