ccopy_reg
_reconstructor
p0
(cdeap.tools.support
Logbook
p1
c__builtin__
list
p2
(lp3
(dp4
S'max'
p5
cnumpy.core.multiarray
_reconstruct
p6
(cnumpy
ndarray
p7
(I0
tp8
S'b'
p9
tp10
Rp11
(I1
(I1
tp12
cnumpy
dtype
p13
(S'f8'
p14
I0
I1
tp15
Rp16
(I3
S'<'
p17
NNNI-1
I-1
I0
tp18
bI00
S'\xb4\xc0J\xc5\x15sw?'
p19
tp20
bsS'avg'
p21
g6
(g7
(I0
tp22
g9
tp23
Rp24
(I1
(I1
tp25
g16
I00
S'\\9\xf8\x90\x00\xf1v?'
p26
tp27
bsS'gen'
p28
I0
sS'nevals'
p29
I5
sa(dp30
g5
g6
(g7
(I0
tp31
g9
tp32
Rp33
(I1
(I1
tp34
g16
I00
S'\xc7\xc8B\xae\\hw?'
p35
tp36
bsg21
g6
(g7
(I0
tp37
g9
tp38
Rp39
(I1
(I1
tp40
g16
I00
S'a\x07\xe2\xef\xf3\xe6v?'
p41
tp42
bsg28
I1
sg29
I4
sa(dp43
g5
g6
(g7
(I0
tp44
g9
tp45
Rp46
(I1
(I1
tp47
g16
I00
S'\xdb\x97\x1cpp^x?'
p48
tp49
bsg21
g6
(g7
(I0
tp50
g9
tp51
Rp52
(I1
(I1
tp53
g16
I00
S'\xf9\xa3\xbb\x03w[w?'
p54
tp55
bsg28
I2
sg29
I4
sa(dp56
g5
g6
(g7
(I0
tp57
g9
tp58
Rp59
(I1
(I1
tp60
g16
I00
S'\x8b\xb3P\xc4\xcd\x90w?'
p61
tp62
bsg21
g6
(g7
(I0
tp63
g9
tp64
Rp65
(I1
(I1
tp66
g16
I00
S'z\xdb\x80>\xe0\xdcv?'
p67
tp68
bsg28
I3
sg29
I0
sa(dp69
g5
g6
(g7
(I0
tp70
g9
tp71
Rp72
(I1
(I1
tp73
g16
I00
S'\xb2\x165\xb7@\x83w?'
p74
tp75
bsg21
g6
(g7
(I0
tp76
g9
tp77
Rp78
(I1
(I1
tp79
g16
I00
S'\xc1\xfa\x9e\xd1:\x13w?'
p80
tp81
bsg28
I4
sg29
I3
sa(dp82
g5
g6
(g7
(I0
tp83
g9
tp84
Rp85
(I1
(I1
tp86
g16
I00
S'\xd1\xc5\xc0;:^w?'
p87
tp88
bsg21
g6
(g7
(I0
tp89
g9
tp90
Rp91
(I1
(I1
tp92
g16
I00
S'\x122"j\x8c\xeev?'
p93
tp94
bsg28
I5
sg29
I3
sa(dp95
g5
g6
(g7
(I0
tp96
g9
tp97
Rp98
(I1
(I1
tp99
g16
I00
S'dDH\x91\xf5Mw?'
p100
tp101
bsg21
g6
(g7
(I0
tp102
g9
tp103
Rp104
(I1
(I1
tp105
g16
I00
S'\xae\x84\xbcV(/w?'
p106
tp107
bsg28
I6
sg29
I5
sa(dp108
g5
g6
(g7
(I0
tp109
g9
tp110
Rp111
(I1
(I1
tp112
g16
I00
S'K\x05C\x0b\x96bw?'
p113
tp114
bsg21
g6
(g7
(I0
tp115
g9
tp116
Rp117
(I1
(I1
tp118
g16
I00
S'p\xab\x9f\x84N\x15w?'
p119
tp120
bsg28
I7
sg29
I3
sa(dp121
g5
g6
(g7
(I0
tp122
g9
tp123
Rp124
(I1
(I1
tp125
g16
I00
S'\x9d\xef\xd3\x88\x05Iw?'
p126
tp127
bsg21
g6
(g7
(I0
tp128
g9
tp129
Rp130
(I1
(I1
tp131
g16
I00
S'\x95\xf21[\xc1,w?'
p132
tp133
bsg28
I8
sg29
I1
sa(dp134
g5
g6
(g7
(I0
tp135
g9
tp136
Rp137
(I1
(I1
tp138
g16
I00
S'E\x03\x9e\x1d~Fw?'
p139
tp140
bsg21
g6
(g7
(I0
tp141
g9
tp142
Rp143
(I1
(I1
tp144
g16
I00
S'\xbbX\xa1C\xad&w?'
p145
tp146
bsg28
I9
sg29
I1
sa(dp147
g5
g6
(g7
(I0
tp148
g9
tp149
Rp150
(I1
(I1
tp151
g16
I00
S'we\x01K\xf5Cw?'
p152
tp153
bsg21
g6
(g7
(I0
tp154
g9
tp155
Rp156
(I1
(I1
tp157
g16
I00
S'\xcd~\xea\x8a\x06\xf6v?'
p158
tp159
bsg28
I10
sg29
I3
satp160
Rp161
(dp162
S'log_header'
p163
I01
sS'header'
p164
(lp165
g28
ag29
ag21
ag5
asS'columns_len'
p166
(lp167
I3
aI6
aI12
aI12
asS'buffindex'
p168
I11
sS'chapters'
p169
ccollections
defaultdict
p170
(g1
tp171
Rp172
sb.